target datalayout = "e-m:e-p270:32:32-p271:32:32-p272:64:64-i64:64-i128:128-f80:128-n8:16:32:64-S128"
target triple = "x86_64-pc-linux-gnu"

%struct.cfl_ctx = type { [1024 x i16], [1024 x i16], [2 x i32], i32, [2 x [32 x i16]], i32, i32, i32, i32, i32, i32 }
%struct.macroblockd = type { i32, i32, i32, i8, [3 x %struct.macroblockd_plane], %struct.TileInfo, ptr, i8, i8, i8, i8, ptr, ptr, ptr, ptr, ptr, i32, i32, i32, i32, i32, [2 x ptr], ptr, [3 x ptr], [3 x [32 x i8]], ptr, [32 x i8], ptr, ptr, [32 x i8], [3 x %struct.WienerInfo], [3 x %struct.SgrprojInfo], i8, i8, [29 x [8 x %struct.candidate_mv]], [29 x [8 x i16]], i8, i8, [8 x i8], ptr, i32, [8 x i32], [8 x i32], i32, i32, ptr, ptr, i8, [4 x i8], [4 x i8], [7 x i8], [32768 x i8], %struct.cfl_ctx, [2 x i16], ptr, [2 x ptr] }
%struct.macroblockd_plane = type { i8, i32, i32, %struct.buf_2d, [2 x %struct.buf_2d], ptr, ptr, [8 x [2 x i16]], ptr, i8, i8, [8 x [19 x ptr]], [8 x [19 x ptr]] }
%struct.buf_2d = type { ptr, ptr, i32, i32, i32 }
%struct.TileInfo = type { i32, i32, i32, i32, i32, i32 }
%struct.WienerInfo = type { [8 x i16], [8 x i16] }
%struct.SgrprojInfo = type { i32, [2 x i32] }
%struct.candidate_mv = type { %union.int_mv, %union.int_mv }
%union.int_mv = type { i32 }
%struct.yv12_buffer_config = type { %union.anon, %union.anon.0, %union.anon.2, %union.anon.4, %union.anon.6, %union.anon.8, i32, [3 x ptr], ptr, i32, ptr, i64, i32, i64, i32, i32, i32, i32, i32, i32, i8, i32, i32, i32, i32, i32, i32, ptr }
%union.anon = type { %struct.anon }
%struct.anon = type { i32, i32 }
%union.anon.0 = type { %struct.anon.1 }
%struct.anon.1 = type { i32, i32 }
%union.anon.2 = type { %struct.anon.3 }
%struct.anon.3 = type { i32, i32 }
%union.anon.4 = type { %struct.anon.5 }
%struct.anon.5 = type { i32, i32 }
%union.anon.6 = type { %struct.anon.7 }
%struct.anon.7 = type { i32, i32 }
%union.anon.8 = type { %struct.anon.9 }
%struct.anon.9 = type { ptr, ptr, ptr }

; Function Attrs: nounwind uwtable
define internal i32 @is_cur_buf_hbd(ptr noundef %0) #0 {
  %2 = alloca ptr, align 8
  store ptr %0, ptr %2, align 8
  %3 = load ptr, ptr %2, align 8
  %4 = getelementptr inbounds nuw %struct.macroblockd, ptr %3, i32 0, i32 22
  %5 = load ptr, ptr %4, align 8
  %6 = getelementptr inbounds nuw %struct.yv12_buffer_config, ptr %5, i32 0, i32 26
  %7 = load i32, ptr %6, align 8
  %8 = and i32 %7, 8
  %9 = icmp ne i32 %8, 0
  %10 = select i1 %9, i32 1, i32 0
  ret i32 %10
}

; Function Attrs: nounwind uwtable
define hidden void @cfl_store_dc_pred(ptr noundef %0, ptr noundef %1, i8 noundef zeroext %2, i32 noundef %3) #0 {
  %5 = alloca ptr, align 8
  %6 = alloca ptr, align 8
  %7 = alloca i8, align 1
  %8 = alloca i32, align 4
  %9 = alloca ptr, align 8
  store ptr %0, ptr %5, align 8
  store ptr %1, ptr %6, align 8
  store i8 %2, ptr %7, align 1
  store i32 %3, ptr %8, align 4
  %10 = load ptr, ptr %5, align 8
  %11 = call i32 @is_cur_buf_hbd(ptr noundef %10)
  %12 = icmp ne i32 %11, 0
  br i1 %12, label %13, label %29

13:                                               ; preds = %4
  %14 = load ptr, ptr %6, align 8
  %15 = ptrtoint ptr %14 to i64
  %16 = shl i64 %15, 1
  %17 = inttoptr i64 %16 to ptr
  store ptr %17, ptr %9, align 8
  %18 = load ptr, ptr %5, align 8
  %19 = getelementptr inbounds nuw %struct.macroblockd, ptr %18, i32 0, i32 52
  %20 = getelementptr inbounds nuw %struct.cfl_ctx, ptr %19, i32 0, i32 4
  %21 = load i8, ptr %7, align 1
  %22 = zext i8 %21 to i64
  %23 = getelementptr inbounds [2 x [32 x i16]], ptr %20, i64 0, i64 %22
  %24 = getelementptr inbounds [32 x i16], ptr %23, i64 0, i64 0
  %25 = load ptr, ptr %9, align 8
  %26 = load i32, ptr %8, align 4
  %27 = shl i32 %26, 1
  %28 = sext i32 %27 to i64
  call void @llvm.memcpy.p0.p0.i64(ptr align 4 %24, ptr align 2 %25, i64 %28, i1 false)
  br label %40

29:                                               ; preds = %4
  %30 = load ptr, ptr %5, align 8
  %31 = getelementptr inbounds nuw %struct.macroblockd, ptr %30, i32 0, i32 52
  %32 = getelementptr inbounds nuw %struct.cfl_ctx, ptr %31, i32 0, i32 4
  %33 = load i8, ptr %7, align 1
  %34 = zext i8 %33 to i64
  %35 = getelementptr inbounds [2 x [32 x i16]], ptr %32, i64 0, i64 %34
  %36 = getelementptr inbounds [32 x i16], ptr %35, i64 0, i64 0
  %37 = load ptr, ptr %6, align 8
  %38 = load i32, ptr %8, align 4
  %39 = sext i32 %38 to i64
  call void @llvm.memcpy.p0.p0.i64(ptr align 4 %36, ptr align 1 %37, i64 %39, i1 false)
  br label %40

40:                                               ; preds = %29, %13
  ret void
}