; Function Attrs: mustprogress nofree norecurse nosync nounwind willreturn memory(readwrite, inaccessiblemem: none) uwtable
define hidden void @cfl_store_dc_pred(ptr nocapture noundef %0, ptr noundef %1, i8 noundef zeroext %2, i32 noundef %3) local_unnamed_addr #2 {
  %5 = getelementptr i8, ptr %0, i64 7960
  %.val = load ptr, ptr %5, align 8
  %6 = getelementptr i8, ptr %.val, i64 192
  %.val.val = load i32, ptr %6, align 8
  %7 = and i32 %.val.val, 8
  %.not = icmp eq i32 %7, 0
  br i1 %.not, label %17, label %8

8:                                                ; preds = %4
  %9 = ptrtoint ptr %1 to i64
  %10 = shl i64 %9, 1
  %11 = inttoptr i64 %10 to ptr
  %12 = getelementptr inbounds i8, ptr %0, i64 47644
  %13 = zext i8 %2 to i64
  %14 = getelementptr inbounds [2 x [32 x i16]], ptr %12, i64 0, i64 %13
  %15 = shl i32 %3, 1
  %16 = sext i32 %15 to i64
  tail call void @llvm.memcpy.p0.p0.i64(ptr nonnull align 4 %14, ptr align 2 %11, i64 %16, i1 false)
  br label %22

17:                                               ; preds = %4
  %18 = getelementptr inbounds i8, ptr %0, i64 47644
  %19 = zext i8 %2 to i64
  %20 = getelementptr inbounds [2 x [32 x i16]], ptr %18, i64 0, i64 %19
  %21 = sext i32 %3 to i64
  tail call void @llvm.memcpy.p0.p0.i64(ptr nonnull align 4 %20, ptr align 1 %1, i64 %21, i1 false)
  br label %22

22:                                               ; preds = %17, %8
  ret void
}